target datalayout = "e-m:e-p270:32:32-p271:32:32-p272:64:64-i64:64-i128:128-f80:128-n8:16:32:64-S128"
target triple = "x86_64-pc-linux-gnu"

%class.Klass = type <{ %class.Metadata, i32, i32, i32, i32, ptr, ptr, ptr, [8 x ptr], %class.OopHandle, ptr, ptr, ptr, ptr, ptr, i32, %class.AccessFlags, i64, i64, i8, i8, i16, i16, [2 x i8], i32, [4 x i8] }>
%class.Metadata = type { ptr }
%class.OopHandle = type { ptr }
%class.AccessFlags = type { i32 }

; Function Attrs: mustprogress nounwind uwtable
define linkonce_odr hidden noundef i32 @_Z12checked_castIjmET_T0_(i64 noundef %0) #1 comdat {
  %2 = alloca i64, align 8
  %3 = alloca i32, align 4
  store i64 %0, ptr %2, align 8
  %4 = load i64, ptr %2, align 8
  %5 = trunc i64 %4 to i32
  store i32 %5, ptr %3, align 4
  %6 = load i32, ptr %3, align 4
  ret i32 %6
}

; Function Attrs: mustprogress nounwind uwtable
define linkonce_odr hidden noundef i32 @_Z16population_countImEjT_(i64 noundef %0) #1 comdat {
  %2 = alloca i64, align 8
  %3 = alloca i64, align 8
  %4 = alloca i64, align 8
  %5 = alloca i64, align 8
  %6 = alloca i64, align 8
  %7 = alloca i64, align 8
  %8 = alloca i64, align 8
  store i64 %0, ptr %2, align 8
  store i64 -1, ptr %3, align 8
  store i64 6148914691236517205, ptr %4, align 8
  store i64 3689348814741910323, ptr %5, align 8
  store i64 72340172838076673, ptr %6, align 8
  store i64 1085102592571150095, ptr %7, align 8
  %9 = load i64, ptr %2, align 8
  store i64 %9, ptr %8, align 8
  %10 = load i64, ptr %8, align 8
  %11 = lshr i64 %10, 1
  %12 = and i64 %11, 6148914691236517205
  %13 = load i64, ptr %8, align 8
  %14 = sub i64 %13, %12
  store i64 %14, ptr %8, align 8
  %15 = load i64, ptr %8, align 8
  %16 = and i64 %15, 3689348814741910323
  %17 = load i64, ptr %8, align 8
  %18 = lshr i64 %17, 2
  %19 = and i64 %18, 3689348814741910323
  %20 = add i64 %16, %19
  store i64 %20, ptr %8, align 8
  %21 = load i64, ptr %8, align 8
  %22 = load i64, ptr %8, align 8
  %23 = lshr i64 %22, 4
  %24 = add i64 %21, %23
  %25 = and i64 %24, 1085102592571150095
  %26 = mul i64 %25, 72340172838076673
  store i64 %26, ptr %8, align 8
  %27 = load i64, ptr %8, align 8
  %28 = lshr i64 %27, 56
  %29 = call noundef i32 @_Z12checked_castIjmET_T0_(i64 noundef %28)
  ret i32 %29
}

; Function Attrs: mustprogress nounwind uwtable
define linkonce_odr hidden noundef zeroext i8 @_ZNK5Klass9hash_slotEv(ptr noundef nonnull align 8 dereferenceable(196) %0) #1 comdat align 2 {
  %2 = alloca ptr, align 8
  store ptr %0, ptr %2, align 8
  %3 = load ptr, ptr %2, align 8
  %4 = getelementptr inbounds %class.Klass, ptr %3, i32 0, i32 19
  %5 = load i8, ptr %4, align 8
  ret i8 %5
}

; Function Attrs: mustprogress nounwind uwtable
define hidden noundef zeroext i8 @_ZN5Klass17compute_home_slotEPS_m(ptr noundef %0, i64 noundef %1) #1 align 2 {
  %3 = alloca i8, align 1
  %4 = alloca ptr, align 8
  %5 = alloca i64, align 8
  %6 = alloca i8, align 1
  store ptr %0, ptr %4, align 8
  store i64 %1, ptr %5, align 8
  %7 = load ptr, ptr %4, align 8
  %8 = call noundef zeroext i8 @_ZNK5Klass9hash_slotEv(ptr noundef nonnull align 8 dereferenceable(196) %7)
  store i8 %8, ptr %6, align 1
  %9 = load i8, ptr %6, align 1
  %10 = zext i8 %9 to i32
  %11 = icmp sgt i32 %10, 0
  br i1 %11, label %12, label %21

12:                                               ; preds = %2
  %13 = load i64, ptr %5, align 8
  %14 = load i8, ptr %6, align 1
  %15 = zext i8 %14 to i32
  %16 = sub nsw i32 64, %15
  %17 = zext i32 %16 to i64
  %18 = shl i64 %13, %17
  %19 = call noundef i32 @_Z16population_countImEjT_(i64 noundef %18)
  %20 = trunc i32 %19 to i8
  store i8 %20, ptr %3, align 1
  br label %22

21:                                               ; preds = %2
  store i8 0, ptr %3, align 1
  br label %22

22:                                               ; preds = %21, %12
  %23 = load i8, ptr %3, align 1
  ret i8 %23
}