; Function Attrs: mustprogress nofree norecurse nosync nounwind willreturn memory(argmem: read) uwtable
define hidden noundef zeroext i8 @_ZN5Klass17compute_home_slotEPS_m(ptr nocapture noundef readonly %0, i64 noundef %1) local_unnamed_addr #10 align 2 {
  %3 = getelementptr inbounds i8, ptr %0, i64 184
  %4 = load i8, ptr %3, align 8
  %.not = icmp eq i8 %4, 0
  br i1 %.not, label %12, label %5

5:                                                ; preds = %2
  %6 = zext i8 %4 to i64
  %7 = sub nsw i64 64, %6
  %8 = and i64 %7, 4294967295
  %9 = shl i64 %1, %8
  %10 = tail call range(i64 0, 65) i64 @llvm.ctpop.i64(i64 %9)
  %11 = trunc nuw nsw i64 %10 to i8
  br label %12

12:                                               ; preds = %2, %5
  %.0 = phi i8 [ %11, %5 ], [ 0, %2 ]
  ret i8 %.0
}